; Function Attrs: mustprogress uwtable
define void @_ZN7httplib10ClientImpl3GetERKNSt7__cxx1112basic_stringIcSt11char_traitsIcESaIcEEERKSt8multimapIS6_S6_NS_6detail2ciESaISt4pairIS7_S6_EEESt8functionIFbPKcmEESI_IFbmmEE(ptr noalias sret(%"class.httplib::Result") align 8 %agg.result, ptr noundef nonnull align 8 dereferenceable(1000) %this, ptr noundef nonnull align 8 dereferenceable(32) %path, ptr noundef nonnull align 8 dereferenceable(48) %headers, ptr nocapture noundef %content_receiver, ptr nocapture noundef %progress) local_unnamed_addr #5 align 2 personality ptr @__gxx_personality_v0 {
entry:
  %agg.tmp = alloca %"class.std::function.50", align 8
  %agg.tmp2 = alloca %"class.std::function.58", align 8
  %agg.tmp3 = alloca %"class.std::function.55", align 8
  call void @llvm.memset.p0.i64(ptr noundef nonnull align 8 dereferenceable(32) %agg.tmp, i8 0, i64 32, i1 false)
  %_M_invoker.i = getelementptr inbounds i8, ptr %agg.tmp2, i64 24
  %_M_invoker2.i = getelementptr inbounds i8, ptr %content_receiver, i64 24
  call void @llvm.memset.p0.i64(ptr noundef nonnull align 8 dereferenceable(24) %agg.tmp2, i8 0, i64 24, i1 false)
  %0 = load ptr, ptr %_M_invoker2.i, align 8
  store ptr %0, ptr %_M_invoker.i, align 8
  %_M_manager.i.i.i = getelementptr inbounds i8, ptr %content_receiver, i64 16
  %1 = load ptr, ptr %_M_manager.i.i.i, align 8
  %tobool.not.i.i.not.i = icmp eq ptr %1, null
  br i1 %tobool.not.i.i.not.i, label %_ZNSt8functionIFbPKcmEEC2EOS3_.exit, label %if.then.i

if.then.i:                                        ; preds = %entry
  %_M_manager.i.i = getelementptr inbounds i8, ptr %agg.tmp2, i64 16
  call void @llvm.memcpy.p0.p0.i64(ptr noundef nonnull align 8 dereferenceable(16) %agg.tmp2, ptr noundef nonnull align 8 dereferenceable(16) %content_receiver, i64 16, i1 false)
  store ptr %1, ptr %_M_manager.i.i, align 8
  tail call void @llvm.memset.p0.i64(ptr noundef nonnull align 8 dereferenceable(16) %_M_manager.i.i.i, i8 0, i64 16, i1 false)
  br label %_ZNSt8functionIFbPKcmEEC2EOS3_.exit

_ZNSt8functionIFbPKcmEEC2EOS3_.exit:              ; preds = %entry, %if.then.i
  %_M_invoker.i1 = getelementptr inbounds i8, ptr %agg.tmp3, i64 24
  %_M_invoker2.i2 = getelementptr inbounds i8, ptr %progress, i64 24
  call void @llvm.memset.p0.i64(ptr noundef nonnull align 8 dereferenceable(24) %agg.tmp3, i8 0, i64 24, i1 false)
  %2 = load ptr, ptr %_M_invoker2.i2, align 8
  store ptr %2, ptr %_M_invoker.i1, align 8
  %_M_manager.i.i.i3 = getelementptr inbounds i8, ptr %progress, i64 16
  %3 = load ptr, ptr %_M_manager.i.i.i3, align 8
  %tobool.not.i.i.not.i4 = icmp eq ptr %3, null
  br i1 %tobool.not.i.i.not.i4, label %_ZNSt8functionIFbmmEEC2EOS1_.exit, label %if.then.i5

if.then.i5:                                       ; preds = %_ZNSt8functionIFbPKcmEEC2EOS3_.exit
  %_M_manager.i.i6 = getelementptr inbounds i8, ptr %agg.tmp3, i64 16
  call void @llvm.memcpy.p0.p0.i64(ptr noundef nonnull align 8 dereferenceable(16) %agg.tmp3, ptr noundef nonnull align 8 dereferenceable(16) %progress, i64 16, i1 false)
  store ptr %3, ptr %_M_manager.i.i6, align 8
  tail call void @llvm.memset.p0.i64(ptr noundef nonnull align 8 dereferenceable(16) %_M_manager.i.i.i3, i8 0, i64 16, i1 false)
  br label %_ZNSt8functionIFbmmEEC2EOS1_.exit

_ZNSt8functionIFbmmEEC2EOS1_.exit:                ; preds = %_ZNSt8functionIFbPKcmEEC2EOS3_.exit, %if.then.i5
  invoke void @_ZN7httplib10ClientImpl3GetERKNSt7__cxx1112basic_stringIcSt11char_traitsIcESaIcEEERKSt8multimapIS6_S6_NS_6detail2ciESaISt4pairIS7_S6_EEESt8functionIFbRKNS_8ResponseEEESI_IFbPKcmEESI_IFbmmEE(ptr sret(%"class.httplib::Result") align 8 %agg.result, ptr noundef nonnull align 8 dereferenceable(1000) %this, ptr noundef nonnull align 8 dereferenceable(32) %path, ptr noundef nonnull align 8 dereferenceable(48) %headers, ptr noundef nonnull %agg.tmp, ptr noundef nonnull %agg.tmp2, ptr noundef nonnull %agg.tmp3)
          to label %invoke.cont unwind label %lpad

invoke.cont:                                      ; preds = %_ZNSt8functionIFbmmEEC2EOS1_.exit
  %_M_manager.i.i7 = getelementptr inbounds i8, ptr %agg.tmp3, i64 16
  %4 = load ptr, ptr %_M_manager.i.i7, align 8
  %tobool.not.i.i = icmp eq ptr %4, null
  br i1 %tobool.not.i.i, label %_ZNSt8functionIFbmmEED2Ev.exit, label %if.then.i.i

if.then.i.i:                                      ; preds = %invoke.cont
  %call.i.i = invoke noundef zeroext i1 %4(ptr noundef nonnull align 8 dereferenceable(16) %agg.tmp3, ptr noundef nonnull align 8 dereferenceable(16) %agg.tmp3, i32 noundef 3)
          to label %_ZNSt8functionIFbmmEED2Ev.exit unwind label %terminate.lpad.i.i

terminate.lpad.i.i:                               ; preds = %if.then.i.i
  %5 = landingpad { ptr, i32 }
          catch ptr null
  %6 = extractvalue { ptr, i32 } %5, 0
  call void @__clang_call_terminate(ptr %6) #40
  unreachable

_ZNSt8functionIFbmmEED2Ev.exit:                   ; preds = %invoke.cont, %if.then.i.i
  %_M_manager.i.i8 = getelementptr inbounds i8, ptr %agg.tmp2, i64 16
  %7 = load ptr, ptr %_M_manager.i.i8, align 8
  %tobool.not.i.i9 = icmp eq ptr %7, null
  br i1 %tobool.not.i.i9, label %_ZNSt8functionIFbPKcmEED2Ev.exit, label %if.then.i.i10

if.then.i.i10:                                    ; preds = %_ZNSt8functionIFbmmEED2Ev.exit
  %call.i.i11 = invoke noundef zeroext i1 %7(ptr noundef nonnull align 8 dereferenceable(16) %agg.tmp2, ptr noundef nonnull align 8 dereferenceable(16) %agg.tmp2, i32 noundef 3)
          to label %_ZNSt8functionIFbPKcmEED2Ev.exit unwind label %terminate.lpad.i.i12

terminate.lpad.i.i12:                             ; preds = %if.then.i.i10
  %8 = landingpad { ptr, i32 }
          catch ptr null
  %9 = extractvalue { ptr, i32 } %8, 0
  call void @__clang_call_terminate(ptr %9) #40
  unreachable

_ZNSt8functionIFbPKcmEED2Ev.exit:                 ; preds = %_ZNSt8functionIFbmmEED2Ev.exit, %if.then.i.i10
  %_M_manager.i.i13 = getelementptr inbounds i8, ptr %agg.tmp, i64 16
  %10 = load ptr, ptr %_M_manager.i.i13, align 8
  %tobool.not.i.i14 = icmp eq ptr %10, null
  br i1 %tobool.not.i.i14, label %_ZNSt8functionIFbRKN7httplib8ResponseEEED2Ev.exit, label %if.then.i.i15

if.then.i.i15:                                    ; preds = %_ZNSt8functionIFbPKcmEED2Ev.exit
  %call.i.i16 = invoke noundef zeroext i1 %10(ptr noundef nonnull align 8 dereferenceable(16) %agg.tmp, ptr noundef nonnull align 8 dereferenceable(16) %agg.tmp, i32 noundef 3)
          to label %_ZNSt8functionIFbRKN7httplib8ResponseEEED2Ev.exit unwind label %terminate.lpad.i.i17

terminate.lpad.i.i17:                             ; preds = %if.then.i.i15
  %11 = landingpad { ptr, i32 }
          catch ptr null
  %12 = extractvalue { ptr, i32 } %11, 0
  call void @__clang_call_terminate(ptr %12) #40
  unreachable

_ZNSt8functionIFbRKN7httplib8ResponseEEED2Ev.exit: ; preds = %_ZNSt8functionIFbPKcmEED2Ev.exit, %if.then.i.i15
  ret void

lpad:                                             ; preds = %_ZNSt8functionIFbmmEEC2EOS1_.exit
  %13 = landingpad { ptr, i32 }
          cleanup
  %_M_manager.i.i18 = getelementptr inbounds i8, ptr %agg.tmp3, i64 16
  %14 = load ptr, ptr %_M_manager.i.i18, align 8
  %tobool.not.i.i19 = icmp eq ptr %14, null
  br i1 %tobool.not.i.i19, label %_ZNSt8functionIFbmmEED2Ev.exit23, label %if.then.i.i20

if.then.i.i20:                                    ; preds = %lpad
  %call.i.i21 = invoke noundef zeroext i1 %14(ptr noundef nonnull align 8 dereferenceable(16) %agg.tmp3, ptr noundef nonnull align 8 dereferenceable(16) %agg.tmp3, i32 noundef 3)
          to label %_ZNSt8functionIFbmmEED2Ev.exit23 unwind label %terminate.lpad.i.i22

terminate.lpad.i.i22:                             ; preds = %if.then.i.i20
  %15 = landingpad { ptr, i32 }
          catch ptr null
  %16 = extractvalue { ptr, i32 } %15, 0
  call void @__clang_call_terminate(ptr %16) #40
  unreachable

_ZNSt8functionIFbmmEED2Ev.exit23:                 ; preds = %lpad, %if.then.i.i20
  %_M_manager.i.i24 = getelementptr inbounds i8, ptr %agg.tmp2, i64 16
  %17 = load ptr, ptr %_M_manager.i.i24, align 8
  %tobool.not.i.i25 = icmp eq ptr %17, null
  br i1 %tobool.not.i.i25, label %_ZNSt8functionIFbPKcmEED2Ev.exit29, label %if.then.i.i26

if.then.i.i26:                                    ; preds = %_ZNSt8functionIFbmmEED2Ev.exit23
  %call.i.i27 = invoke noundef zeroext i1 %17(ptr noundef nonnull align 8 dereferenceable(16) %agg.tmp2, ptr noundef nonnull align 8 dereferenceable(16) %agg.tmp2, i32 noundef 3)
          to label %_ZNSt8functionIFbPKcmEED2Ev.exit29 unwind label %terminate.lpad.i.i28

terminate.lpad.i.i28:                             ; preds = %if.then.i.i26
  %18 = landingpad { ptr, i32 }
          catch ptr null
  %19 = extractvalue { ptr, i32 } %18, 0
  call void @__clang_call_terminate(ptr %19) #40
  unreachable

_ZNSt8functionIFbPKcmEED2Ev.exit29:               ; preds = %_ZNSt8functionIFbmmEED2Ev.exit23, %if.then.i.i26
  %_M_manager.i.i30 = getelementptr inbounds i8, ptr %agg.tmp, i64 16
  %20 = load ptr, ptr %_M_manager.i.i30, align 8
  %tobool.not.i.i31 = icmp eq ptr %20, null
  br i1 %tobool.not.i.i31, label %_ZNSt8functionIFbRKN7httplib8ResponseEEED2Ev.exit35, label %if.then.i.i32

if.then.i.i32:                                    ; preds = %_ZNSt8functionIFbPKcmEED2Ev.exit29
  %call.i.i33 = invoke noundef zeroext i1 %20(ptr noundef nonnull align 8 dereferenceable(16) %agg.tmp, ptr noundef nonnull align 8 dereferenceable(16) %agg.tmp, i32 noundef 3)
          to label %_ZNSt8functionIFbRKN7httplib8ResponseEEED2Ev.exit35 unwind label %terminate.lpad.i.i34

terminate.lpad.i.i34:                             ; preds = %if.then.i.i32
  %21 = landingpad { ptr, i32 }
          catch ptr null
  %22 = extractvalue { ptr, i32 } %21, 0
  call void @__clang_call_terminate(ptr %22) #40
  unreachable

_ZNSt8functionIFbRKN7httplib8ResponseEEED2Ev.exit35: ; preds = %_ZNSt8functionIFbPKcmEED2Ev.exit29, %if.then.i.i32
  resume { ptr, i32 } %13
}